(lp0
V17547
p1
aV17560
p2
aV17287
p3
aV17491
p4
aV17490
p5
aV17288
p6
aV17289
p7
aV17290
p8
aV17360
p9
aV17492
p10
aV17291
p11
aV17292
p12
aV17293
p13
aV17447
p14
aV17556
p15
aV17546
p16
aV17493
p17
aV17463
p18
aV17552
p19
aV17294
p20
aV17371
p21
aV17295
p22
aV17296
p23
aV17494
p24
aV17297
p25
aV17449
p26
aV17370
p27
aV17369
p28
aV17298
p29
aV17559
p30
aV17299
p31
aV17495
p32
aV17496
p33
aV17569
p34
aV17303
p35
aV17444
p36
aV17553
p37
aV17300
p38
aV17469
p39
aV17548
p40
aV17301
p41
aV17543
p42
aV17302
p43
aV17304
p44
aV17563
p45
aV17368
p46
aV17305
p47
aV17562
p48
aV17497
p49
aV17498
p50
aV17306
p51
aV17367
p52
aV17366
p53
aV17477
p54
aV17274
p55
aV17362
p56
aV17390
p57
aV17389
p58
aV17388
p59
aV17387
p60
aV17285
p61
aV17273
p62
aV17364
p63
aV17307
p64
aV17409
p65
aV17275
p66
aV17272
p67
aV17407
p68
aV17412
p69
aV17309
p70
aV17311
p71
aV17276
p72
aV17557
p73
aV17478
p74
aV17416
p75
aV17430
p76
aV17555
p77
aV17479
p78
aV17502
p79
aV17394
p80
aV17314
p81
aV17406
p82
aV17403
p83
aV17315
p84
aV17568
p85
aV17499
p86
aV17501
p87
aV17316
p88
aV17561
p89
aV17436
p90
aV17500
p91
aV17554
p92
aV17317
p93
aV17402
p94
aV17401
p95
aV17400
p96
aV17318
p97
aV17443
p98
aV17334
p99
aV17399
p100
aV17398
p101
aV17504
p102
aV17396
p103
aV17503
p104
aV17476
p105
aV17277
p106
aV17319
p107
aV17363
p108
aV17395
p109
aV17397
p110
aV17320
p111
aV17435
p112
aV17278
p113
aV17281
p114
aV17324
p115
aV17325
p116
aV17473
p117
aV17434
p118
aV17326
p119
aV17433
p120
aV17404
p121
aV17432
p122
aV17327
p123
aV17328
p124
aV17286
p125
aV17280
p126
aV17329
p127
aV17279
p128
aV17507
p129
aV17429
p130
aV17330
p131
aV17331
p132
aV17428
p133
aV17509
p134
aV17506
p135
aV17513
p136
aV17510
p137
aV17511
p138
aV17335
p139
aV17336
p140
aV17512
p141
aV17337
p142
aV17338
p143
aV17339
p144
aV17470
p145
aV17467
p146
aV17545
p147
aV17340
p148
aV17341
p149
aV17516
p150
aV17514
p151
aV17342
p152
aV17426
p153
aV17517
p154
aV17515
p155
aV17427
p156
aV17343
p157
aV17425
p158
aV17344
p159
aV17345
p160
aV17518
p161
aV17346
p162
aV17347
p163
aV17424
p164
aV17348
p165
aV17519
p166
aV17544
p167
aV17349
p168
aV17423
p169
aV17520
p170
aV17353
p171
aV17422
p172
aV17350
p173
aV17421
p174
aV17351
p175
aV17352
p176
aV17354
p177
aV17355
p178
aV17284
p179
aV17522
p180
aV17483
p181
aV17484
p182
aV17523
p183
aV17480
p184
aV17524
p185
aV17356
p186
aV17525
p187
aV17526
p188
aV17527
p189
aV17528
p190
aV17529
p191
aV17521
p192
aV17530
p193
aV17566
p194
aV17481
p195
aV17531
p196
aV17482
p197
aV17532
p198
aV17535
p199
aV17533
p200
aV17542
p201
aV17534
p202
aV17565
p203
aV17420
p204
aV17455
p205
aV17357
p206
aV17358
p207
aV17454
p208
aV17359
p209
aV17536
p210
aV17373
p211
aV17372
p212
aV17374
p213
aV17452
p214
aV17375
p215
aV17451
p216
aV17453
p217
aV17488
p218
aV17376
p219
aV17377
p220
aV17378
p221
aV17379
p222
aV17380
p223
aV17461
p224
aV17450
p225
aV17381
p226
aV17382
p227
aV17384
p228
aV17383
p229
aV17385
p230
aV17386
p231
aV17391
p232
aV17392
p233
aV17393
p234
aV17465
p235
aV17282
p236
aV17333
p237
aV17460
p238
aV17458
p239
aV17413
p240
aV17462
p241
aV17538
p242
aV17459
p243
aV17550
p244
aV17321
p245
aV17414
p246
aV17457
p247
aV17472
p248
aV17312
p249
aV17415
p250
aV17323
p251
aV17475
p252
aV17365
p253
aV17308
p254
aV17410
p255
aV17405
p256
aV17431
p257
aV17408
p258
aV17411
p259
aV17310
p260
aV17539
p261
aV17445
p262
aV17489
p263
aV17417
p264
aV17540
p265
aV17486
p266
aV17322
p267
aV17567
p268
aV17418
p269
aV17564
p270
aV17471
p271
aV17313
p272
aV17419
p273
aV17437
p274
aV17456
p275
aV17466
p276
aV17438
p277
aV17283
p278
aV17541
p279
aV17439
p280
aV17448
p281
aV17440
p282
aV17441
p283
aV17474
p284
aV17551
p285
aV17442
p286
aV17446
p287
aV17468
p288
a.