(lp0
V17547
p1
aV17560
p2
aV17287
p3
aV17490
p4
aV17288
p5
aV17289
p6
aV17290
p7
aV17360
p8
aV17492
p9
aV17291
p10
aV17292
p11
aV17293
p12
aV17447
p13
aV17556
p14
aV17546
p15
aV17493
p16
aV17463
p17
aV17552
p18
aV17294
p19
aV17371
p20
aV17295
p21
aV17296
p22
aV17494
p23
aV17297
p24
aV17449
p25
aV17370
p26
aV17369
p27
aV17298
p28
aV17559
p29
aV17549
p30
aV17299
p31
aV17495
p32
aV17496
p33
aV17569
p34
aV17303
p35
aV17444
p36
aV17553
p37
aV17300
p38
aV17469
p39
aV17548
p40
aV17301
p41
aV17543
p42
aV17302
p43
aV17304
p44
aV17563
p45
aV17368
p46
aV17305
p47
aV17562
p48
aV17361
p49
aV17497
p50
aV17498
p51
aV17306
p52
aV17367
p53
aV17366
p54
aV17477
p55
aV17274
p56
aV17362
p57
aV17390
p58
aV17389
p59
aV17388
p60
aV17387
p61
aV17285
p62
aV17273
p63
aV17364
p64
aV17307
p65
aV17409
p66
aV17275
p67
aV17272
p68
aV17407
p69
aV17412
p70
aV17309
p71
aV17311
p72
aV17276
p73
aV17557
p74
aV17478
p75
aV17416
p76
aV17430
p77
aV17555
p78
aV17479
p79
aV17502
p80
aV17394
p81
aV17314
p82
aV17406
p83
aV17403
p84
aV17315
p85
aV17568
p86
aV17499
p87
aV17501
p88
aV17316
p89
aV17561
p90
aV17436
p91
aV17500
p92
aV17554
p93
aV17317
p94
aV17402
p95
aV17401
p96
aV17400
p97
aV17318
p98
aV17443
p99
aV17334
p100
aV17399
p101
aV17398
p102
aV17504
p103
aV17396
p104
aV17503
p105
aV17476
p106
aV17277
p107
aV17319
p108
aV17363
p109
aV17395
p110
aV17397
p111
aV17320
p112
aV17435
p113
aV17278
p114
aV17281
p115
aV17324
p116
aV17473
p117
aV17434
p118
aV17326
p119
aV17433
p120
aV17404
p121
aV17432
p122
aV17327
p123
aV17328
p124
aV17286
p125
aV17280
p126
aV17329
p127
aV17279
p128
aV17507
p129
aV17429
p130
aV17330
p131
aV17331
p132
aV17508
p133
aV17428
p134
aV17509
p135
aV17506
p136
aV17332
p137
aV17513
p138
aV17510
p139
aV17511
p140
aV17335
p141
aV17336
p142
aV17512
p143
aV17337
p144
aV17338
p145
aV17339
p146
aV17470
p147
aV17467
p148
aV17545
p149
aV17340
p150
aV17341
p151
aV17516
p152
aV17514
p153
aV17342
p154
aV17426
p155
aV17517
p156
aV17515
p157
aV17427
p158
aV17343
p159
aV17425
p160
aV17464
p161
aV17344
p162
aV17345
p163
aV17518
p164
aV17346
p165
aV17347
p166
aV17424
p167
aV17348
p168
aV17519
p169
aV17544
p170
aV17349
p171
aV17423
p172
aV17520
p173
aV17353
p174
aV17422
p175
aV17350
p176
aV17421
p177
aV17351
p178
aV17352
p179
aV17354
p180
aV17355
p181
aV17284
p182
aV17522
p183
aV17483
p184
aV17484
p185
aV17523
p186
aV17480
p187
aV17524
p188
aV17525
p189
aV17526
p190
aV17527
p191
aV17528
p192
aV17529
p193
aV17521
p194
aV17530
p195
aV17566
p196
aV17481
p197
aV17531
p198
aV17482
p199
aV17532
p200
aV17535
p201
aV17533
p202
aV17542
p203
aV17534
p204
aV17565
p205
aV17420
p206
aV17455
p207
aV17357
p208
aV17358
p209
aV17454
p210
aV17359
p211
aV17536
p212
aV17373
p213
aV17372
p214
aV17374
p215
aV17452
p216
aV17375
p217
aV17451
p218
aV17488
p219
aV17453
p220
aV17537
p221
aV17376
p222
aV17377
p223
aV17378
p224
aV17379
p225
aV17461
p226
aV17450
p227
aV17381
p228
aV17382
p229
aV17384
p230
aV17383
p231
aV17385
p232
aV17386
p233
aV17391
p234
aV17392
p235
aV17393
p236
aV17465
p237
aV17282
p238
aV17333
p239
aV17460
p240
aV17458
p241
aV17413
p242
aV17462
p243
aV17538
p244
aV17459
p245
aV17550
p246
aV17321
p247
aV17414
p248
aV17457
p249
aV17472
p250
aV17312
p251
aV17415
p252
aV17323
p253
aV17475
p254
aV17365
p255
aV17308
p256
aV17410
p257
aV17405
p258
aV17431
p259
aV17408
p260
aV17411
p261
aV17310
p262
aV17558
p263
aV17539
p264
aV17445
p265
aV17489
p266
aV17417
p267
aV17540
p268
aV17486
p269
aV17322
p270
aV17567
p271
aV17487
p272
aV17418
p273
aV17564
p274
aV17471
p275
aV17313
p276
aV17419
p277
aV17437
p278
aV17456
p279
aV17466
p280
aV17438
p281
aV17283
p282
aV17541
p283
aV17439
p284
aV17448
p285
aV17440
p286
aV17441
p287
aV17474
p288
aV17551
p289
aV17442
p290
aV17446
p291
aV17468
p292
a.